target datalayout = "e-m:e-p270:32:32-p271:32:32-p272:64:64-i64:64-i128:128-f80:128-n8:16:32:64-S128"
target triple = "x86_64-pc-linux-gnu"

%struct._GLFWlibrary = type { i32, %struct.GLFWallocator, %struct._GLFWplatform, %struct.anon.7, ptr, ptr, ptr, ptr, i32, i32, [16 x %struct._GLFWjoystick], ptr, i32, %struct._GLFWtls, %struct._GLFWtls, %struct._GLFWmutex, %struct.anon.16, %struct.anon.17, %struct.anon.18, %struct.anon.19, %struct.anon.20, %struct._GLFWlibraryWayland, %struct._GLFWlibraryX11, %struct._GLFWlibraryNull, %struct._GLFWlibraryGLX, %struct._GLFWlibraryLinux }
%struct.GLFWallocator = type { ptr, ptr, ptr, ptr }
%struct._GLFWplatform = type { i32, ptr, ptr, ptr, ptr, ptr, ptr, ptr, ptr, ptr, ptr, ptr, ptr, ptr, ptr, ptr, ptr, ptr, ptr, ptr, ptr, ptr, ptr, ptr, ptr, ptr, ptr, ptr, ptr, ptr, ptr, ptr, ptr, ptr, ptr, ptr, ptr, ptr, ptr, ptr, ptr, ptr, ptr, ptr, ptr, ptr, ptr, ptr, ptr, ptr, ptr, ptr, ptr, ptr, ptr, ptr, ptr, ptr, ptr, ptr, ptr, ptr, ptr, ptr, ptr, ptr, ptr, ptr, ptr, ptr, ptr, ptr }
%struct.anon.7 = type { %struct._GLFWinitconfig, %struct._GLFWfbconfig, %struct._GLFWwndconfig, %struct._GLFWctxconfig, i32 }
%struct._GLFWinitconfig = type { i32, i32, i32, ptr, %struct.anon.8, %struct.anon.9, %struct.anon.10 }
%struct.anon.8 = type { i32, i32 }
%struct.anon.9 = type { i32 }
%struct.anon.10 = type { i32 }
%struct._GLFWfbconfig = type { i32, i32, i32, i32, i32, i32, i32, i32, i32, i32, i32, i32, i32, i32, i32, i32, i64 }
%struct._GLFWwndconfig = type { i32, i32, i32, i32, ptr, i32, i32, i32, i32, i32, i32, i32, i32, i32, i32, i32, i32, %struct.anon.11, %struct.anon.12, %struct.anon.13, %struct.anon.14 }
%struct.anon.11 = type { [256 x i8] }
%struct.anon.12 = type { [256 x i8], [256 x i8] }
%struct.anon.13 = type { i32, i32 }
%struct.anon.14 = type { [256 x i8] }
%struct._GLFWctxconfig = type { i32, i32, i32, i32, i32, i32, i32, i32, i32, i32, ptr, %struct.anon.15 }
%struct.anon.15 = type { i32 }
%struct._GLFWjoystick = type { i32, i32, ptr, i32, ptr, i32, ptr, i32, [128 x i8], ptr, [33 x i8], ptr, %struct._GLFWjoystickLinux }
%struct._GLFWjoystickLinux = type { i32, [4096 x i8], [512 x i32], [64 x i32], [64 x %struct.input_absinfo], [4 x [2 x i32]] }
%struct.input_absinfo = type { i32, i32, i32, i32, i32, i32 }
%struct._GLFWtls = type { %struct._GLFWtlsPOSIX }
%struct._GLFWtlsPOSIX = type { i32, i32 }
%struct._GLFWmutex = type { %struct._GLFWmutexPOSIX }
%struct._GLFWmutexPOSIX = type { i32, %union.pthread_mutex_t }
%union.pthread_mutex_t = type { %struct.__pthread_mutex_s }
%struct.__pthread_mutex_s = type { i32, i32, i32, i32, i32, i16, i16, %struct.__pthread_internal_list }
%struct.__pthread_internal_list = type { ptr, ptr }
%struct.anon.16 = type { i64, %struct._GLFWtimerPOSIX }
%struct._GLFWtimerPOSIX = type { i32, i64 }
%struct.anon.17 = type { i32, ptr, i32, i32, i32, i32, i32, i32, i32, i32, i32, i32, i32, i32, i32, i32, i32, i32, i32, i32, ptr, ptr, ptr, ptr, ptr, ptr, ptr, ptr, ptr, ptr, ptr, ptr, ptr, ptr, ptr, ptr, ptr, ptr, ptr }
%struct.anon.18 = type { ptr, ptr, ptr, ptr, ptr, ptr, ptr, ptr }
%struct.anon.19 = type { i32, ptr, [2 x ptr], ptr, i32, i32, i32, i32, i32, i32, i32 }
%struct.anon.20 = type { ptr, ptr }
%struct._GLFWlibraryWayland = type { ptr, ptr, ptr, ptr, ptr, ptr, ptr, ptr, ptr, ptr, ptr, ptr, ptr, ptr, ptr, ptr, ptr, ptr, ptr, i32, ptr, ptr, ptr, ptr, i32, ptr, ptr, ptr, ptr, ptr, i32, i32, i32, i32, i32, i32, i32, ptr, [256 x i16], [349 x i16], [349 x [5 x i8]], %struct.anon.21, ptr, ptr, %struct.anon.22, %struct.anon.23, %struct.anon.24, %struct.anon.25 }
%struct.anon.21 = type { ptr, ptr, ptr, ptr, ptr, i32, i32, i32, i32, i32, i32, i32, ptr, ptr, ptr, ptr, ptr, ptr, ptr, ptr, ptr, ptr, ptr, ptr, ptr, ptr, ptr, ptr, ptr, ptr, ptr, ptr }
%struct.anon.22 = type { ptr, ptr, ptr, ptr, ptr, ptr, ptr, ptr, ptr, ptr, ptr, ptr, ptr, ptr, ptr, ptr, ptr, ptr, ptr, ptr }
%struct.anon.23 = type { ptr, ptr, ptr, ptr, ptr }
%struct.anon.24 = type { ptr, ptr, ptr, ptr }
%struct.anon.25 = type { ptr, ptr, ptr, i32, ptr, ptr, ptr, ptr, ptr, ptr, ptr, ptr, ptr, ptr, ptr, ptr, ptr, ptr, ptr, ptr, ptr, ptr, ptr, ptr, ptr, ptr, ptr, ptr, ptr }
%struct._GLFWlibraryX11 = type { ptr, i32, i64, float, float, i64, i64, i32, ptr, ptr, i32, ptr, ptr, [349 x [5 x i8]], [256 x i16], [349 x i16], double, double, ptr, [2 x i32], i64, i64, i64, i64, i64, i64, i64, i64, i64, i64, i64, i64, i64, i64, i64, i64, i64, i64, i64, i64, i64, i64, i64, i64, i64, i64, i64, i64, i64, i64, i64, i64, i64, i64, i64, i64, i64, i64, i64, i64, i64, i64, i64, i64, i64, i64, i64, i64, i64, i64, %struct.anon.26, %struct.anon.27, %struct.anon.28, %struct.anon.29, %struct.anon.30, %struct.anon.31, %struct.anon.32, %struct.anon.33, %struct.anon.34, %struct.anon.35, %struct.anon.36, %struct.anon.37, %struct.anon.38 }
%struct.anon.26 = type { ptr, i32, ptr, ptr, ptr, ptr, ptr, ptr, ptr, ptr, ptr, ptr, ptr, ptr, ptr, ptr, ptr, ptr, ptr, ptr, ptr, ptr, ptr, ptr, ptr, ptr, ptr, ptr, ptr, ptr, ptr, ptr, ptr, ptr, ptr, ptr, ptr, ptr, ptr, ptr, ptr, ptr, ptr, ptr, ptr, ptr, ptr, ptr, ptr, ptr, ptr, ptr, ptr, ptr, ptr, ptr, ptr, ptr, ptr, ptr, ptr, ptr, ptr, ptr, ptr, ptr, ptr, ptr, ptr, ptr, ptr, ptr, ptr, ptr, ptr, ptr, ptr, ptr, ptr, ptr, ptr, ptr, ptr, ptr, ptr, ptr, ptr, ptr }
%struct.anon.27 = type { ptr, ptr, ptr, ptr }
%struct.anon.28 = type { i32, ptr, i32, i32, i32, i32, i32, i32, ptr, ptr, ptr, ptr, ptr, ptr, ptr, ptr, ptr, ptr, ptr, ptr, ptr, ptr, ptr, ptr, ptr }
%struct.anon.29 = type { i32, i32, i32, i32, i32, i32, i32, i32, ptr, ptr, ptr, ptr, ptr, ptr, ptr, ptr, ptr }
%struct.anon.30 = type { i32, i32, i32, i32, i32 }
%struct.anon.31 = type { i32, i64, i64 }
%struct.anon.32 = type { ptr, ptr, ptr, ptr, ptr, ptr, ptr }
%struct.anon.33 = type { i32, ptr, i32, i32, ptr, ptr, ptr }
%struct.anon.34 = type { ptr, ptr }
%struct.anon.35 = type { i32, ptr, i32, i32, ptr, ptr, ptr, ptr }
%struct.anon.36 = type { i32, ptr, i32, i32, i32, i32, i32, ptr, ptr }
%struct.anon.37 = type { i32, ptr, i32, i32, i32, i32, ptr, ptr, ptr }
%struct.anon.38 = type { i32, ptr, i32, i32, i32, i32, ptr, ptr, ptr, ptr }
%struct._GLFWlibraryNull = type { i32, i32, ptr, ptr, [121 x i16], [349 x i8] }
%struct._GLFWlibraryGLX = type { i32, i32, i32, i32, ptr, ptr, ptr, ptr, ptr, ptr, ptr, ptr, ptr, ptr, ptr, ptr, ptr, ptr, ptr, ptr, ptr, ptr, ptr, ptr, i32, i32, i32, i32, i32, i32, i32, i32, i32, i32, i32, i32 }
%struct._GLFWlibraryLinux = type { i32, i32, %struct.re_pattern_buffer, i32, i32 }
%struct.re_pattern_buffer = type { ptr, i64, i64, i64, ptr, ptr, i64, i8 }
%struct._GLFWwindow = type { ptr, i32, i32, i32, i32, i32, i32, i32, ptr, i32, %struct.GLFWvidmode, ptr, ptr, ptr, i32, i32, i32, i32, i32, i32, i32, i32, i32, i32, [8 x i8], [349 x i8], double, double, i32, %struct._GLFWcontext, %struct.anon.1, %struct._GLFWwindowWayland, %struct._GLFWwindowX11, %struct._GLFWwindowNull }
%struct.GLFWvidmode = type { i32, i32, i32, i32, i32, i32 }
%struct._GLFWcontext = type { i32, i32, i32, i32, i32, i32, i32, i32, i32, i32, i32, ptr, ptr, ptr, ptr, ptr, ptr, ptr, ptr, ptr, %struct.anon, %struct.anon.0, %struct._GLFWcontextGLX }
%struct.anon = type { ptr, ptr, ptr, ptr }
%struct.anon.0 = type { ptr, i32, i32, ptr }
%struct._GLFWcontextGLX = type { ptr, i64 }
%struct.anon.1 = type { ptr, ptr, ptr, ptr, ptr, ptr, ptr, ptr, ptr, ptr, ptr, ptr, ptr, ptr, ptr, ptr, ptr }
%struct._GLFWwindowWayland = type { i32, i32, i32, i32, i32, i32, i32, i32, i32, i32, i32, ptr, ptr, %struct.anon.2, %struct.anon.3, %struct.anon.4, %struct.anon.5, ptr, double, double, ptr, i32, ptr, i64, i64, ptr, i32, ptr, ptr, ptr, ptr, ptr, ptr, %struct.anon.6 }
%struct.anon.2 = type { ptr }
%struct.anon.3 = type { i32, i32, i32, i32, i32, i32 }
%struct.anon.4 = type { ptr, ptr, ptr, i32 }
%struct.anon.5 = type { ptr }
%struct.anon.6 = type { i32, ptr, %struct._GLFWfallbackEdgeWayland, %struct._GLFWfallbackEdgeWayland, %struct._GLFWfallbackEdgeWayland, %struct._GLFWfallbackEdgeWayland, ptr }
%struct._GLFWfallbackEdgeWayland = type { ptr, ptr, ptr }
%struct._GLFWwindowX11 = type { i64, i64, i64, ptr, i32, i32, i32, i32, i32, i32, i32, i32, i32, i32, i32, i32, [256 x i64] }
%struct._GLFWwindowNull = type { i32, i32, i32, i32, i32, i32, i32, i32, i32, i32, i32, float }

@_glfw = external global %struct._GLFWlibrary, align 8
@.str.395 = private unnamed_addr constant [26 x i8] c"Invalid input mode 0x%08X\00", align 1
@.str.396 = private unnamed_addr constant [27 x i8] c"Invalid cursor mode 0x%08X\00", align 1
@.str.397 = private unnamed_addr constant [49 x i8] c"Raw mouse motion is not supported on this system\00", align 1

; Function Attrs: nounwind uwtable
define void @glfwSetInputMode(ptr noundef %0, i32 noundef %1, i32 noundef %2) #0 {
  %4 = alloca ptr, align 8
  %5 = alloca i32, align 4
  %6 = alloca i32, align 4
  %7 = alloca ptr, align 8
  %8 = alloca i32, align 4
  %9 = alloca i32, align 4
  %10 = alloca i32, align 4
  store ptr %0, ptr %4, align 8, !tbaa !179
  store i32 %1, ptr %5, align 4, !tbaa !8
  store i32 %2, ptr %6, align 4, !tbaa !8
  call void @llvm.lifetime.start.p0(i64 8, ptr %7) #8
  %11 = load ptr, ptr %4, align 8, !tbaa !179
  store ptr %11, ptr %7, align 8, !tbaa !3
  %12 = load i32, ptr @_glfw, align 8, !tbaa !181
  %13 = icmp ne i32 %12, 0
  br i1 %13, label %15, label %14

14:                                               ; preds = %3
  call void (i32, ptr, ...) @_glfwInputError(i32 noundef 65537, ptr noundef null)
  store i32 1, ptr %8, align 4
  br label %163

15:                                               ; preds = %3
  %16 = load i32, ptr %5, align 4, !tbaa !8
  switch i32 %16, label %161 [
    i32 208897, label %17
    i32 208898, label %51
    i32 208899, label %92
    i32 208900, label %133
    i32 208901, label %139
  ]

17:                                               ; preds = %15
  %18 = load i32, ptr %6, align 4, !tbaa !8
  %19 = icmp ne i32 %18, 212993
  br i1 %19, label %20, label %31

20:                                               ; preds = %17
  %21 = load i32, ptr %6, align 4, !tbaa !8
  %22 = icmp ne i32 %21, 212994
  br i1 %22, label %23, label %31

23:                                               ; preds = %20
  %24 = load i32, ptr %6, align 4, !tbaa !8
  %25 = icmp ne i32 %24, 212995
  br i1 %25, label %26, label %31

26:                                               ; preds = %23
  %27 = load i32, ptr %6, align 4, !tbaa !8
  %28 = icmp ne i32 %27, 212996
  br i1 %28, label %29, label %31

29:                                               ; preds = %26
  %30 = load i32, ptr %6, align 4, !tbaa !8
  call void (i32, ptr, ...) @_glfwInputError(i32 noundef 65539, ptr noundef @.str.396, i32 noundef %30)
  store i32 1, ptr %8, align 4
  br label %163

31:                                               ; preds = %26, %23, %20, %17
  %32 = load ptr, ptr %7, align 8, !tbaa !3
  %33 = getelementptr inbounds nuw %struct._GLFWwindow, ptr %32, i32 0, i32 23
  %34 = load i32, ptr %33, align 4, !tbaa !182
  %35 = load i32, ptr %6, align 4, !tbaa !8
  %36 = icmp eq i32 %34, %35
  br i1 %36, label %37, label %38

37:                                               ; preds = %31
  store i32 1, ptr %8, align 4
  br label %163

38:                                               ; preds = %31
  %39 = load i32, ptr %6, align 4, !tbaa !8
  %40 = load ptr, ptr %7, align 8, !tbaa !3
  %41 = getelementptr inbounds nuw %struct._GLFWwindow, ptr %40, i32 0, i32 23
  store i32 %39, ptr %41, align 4, !tbaa !182
  %42 = load ptr, ptr getelementptr inbounds nuw (%struct._GLFWplatform, ptr getelementptr inbounds nuw (%struct._GLFWlibrary, ptr @_glfw, i32 0, i32 2), i32 0, i32 3), align 8, !tbaa !184
  %43 = load ptr, ptr %7, align 8, !tbaa !3
  %44 = load ptr, ptr %7, align 8, !tbaa !3
  %45 = getelementptr inbounds nuw %struct._GLFWwindow, ptr %44, i32 0, i32 26
  %46 = load ptr, ptr %7, align 8, !tbaa !3
  %47 = getelementptr inbounds nuw %struct._GLFWwindow, ptr %46, i32 0, i32 27
  call void %42(ptr noundef %43, ptr noundef %45, ptr noundef %47)
  %48 = load ptr, ptr getelementptr inbounds nuw (%struct._GLFWplatform, ptr getelementptr inbounds nuw (%struct._GLFWlibrary, ptr @_glfw, i32 0, i32 2), i32 0, i32 5), align 8, !tbaa !185
  %49 = load ptr, ptr %7, align 8, !tbaa !3
  %50 = load i32, ptr %6, align 4, !tbaa !8
  call void %48(ptr noundef %49, i32 noundef %50)
  store i32 1, ptr %8, align 4
  br label %163

51:                                               ; preds = %15
  %52 = load i32, ptr %6, align 4, !tbaa !8
  %53 = icmp ne i32 %52, 0
  %54 = select i1 %53, i32 1, i32 0
  store i32 %54, ptr %6, align 4, !tbaa !8
  %55 = load ptr, ptr %7, align 8, !tbaa !3
  %56 = getelementptr inbounds nuw %struct._GLFWwindow, ptr %55, i32 0, i32 20
  %57 = load i32, ptr %56, align 8, !tbaa !11
  %58 = load i32, ptr %6, align 4, !tbaa !8
  %59 = icmp eq i32 %57, %58
  br i1 %59, label %60, label %61

60:                                               ; preds = %51
  store i32 1, ptr %8, align 4
  br label %163

61:                                               ; preds = %51
  %62 = load i32, ptr %6, align 4, !tbaa !8
  %63 = icmp ne i32 %62, 0
  br i1 %63, label %88, label %64

64:                                               ; preds = %61
  call void @llvm.lifetime.start.p0(i64 4, ptr %9) #8
  store i32 0, ptr %9, align 4, !tbaa !8
  br label %65

65:                                               ; preds = %84, %64
  %66 = load i32, ptr %9, align 4, !tbaa !8
  %67 = icmp sle i32 %66, 348
  br i1 %67, label %68, label %87

68:                                               ; preds = %65
  %69 = load ptr, ptr %7, align 8, !tbaa !3
  %70 = getelementptr inbounds nuw %struct._GLFWwindow, ptr %69, i32 0, i32 25
  %71 = load i32, ptr %9, align 4, !tbaa !8
  %72 = sext i32 %71 to i64
  %73 = getelementptr inbounds [349 x i8], ptr %70, i64 0, i64 %72
  %74 = load i8, ptr %73, align 1, !tbaa !10
  %75 = sext i8 %74 to i32
  %76 = icmp eq i32 %75, 3
  br i1 %76, label %77, label %83

77:                                               ; preds = %68
  %78 = load ptr, ptr %7, align 8, !tbaa !3
  %79 = getelementptr inbounds nuw %struct._GLFWwindow, ptr %78, i32 0, i32 25
  %80 = load i32, ptr %9, align 4, !tbaa !8
  %81 = sext i32 %80 to i64
  %82 = getelementptr inbounds [349 x i8], ptr %79, i64 0, i64 %81
  store i8 0, ptr %82, align 1, !tbaa !10
  br label %83

83:                                               ; preds = %77, %68
  br label %84

84:                                               ; preds = %83
  %85 = load i32, ptr %9, align 4, !tbaa !8
  %86 = add nsw i32 %85, 1
  store i32 %86, ptr %9, align 4, !tbaa !8
  br label %65

87:                                               ; preds = %65
  call void @llvm.lifetime.end.p0(i64 4, ptr %9) #8
  br label %88

88:                                               ; preds = %87, %61
  %89 = load i32, ptr %6, align 4, !tbaa !8
  %90 = load ptr, ptr %7, align 8, !tbaa !3
  %91 = getelementptr inbounds nuw %struct._GLFWwindow, ptr %90, i32 0, i32 20
  store i32 %89, ptr %91, align 8, !tbaa !11
  store i32 1, ptr %8, align 4
  br label %163

92:                                               ; preds = %15
  %93 = load i32, ptr %6, align 4, !tbaa !8
  %94 = icmp ne i32 %93, 0
  %95 = select i1 %94, i32 1, i32 0
  store i32 %95, ptr %6, align 4, !tbaa !8
  %96 = load ptr, ptr %7, align 8, !tbaa !3
  %97 = getelementptr inbounds nuw %struct._GLFWwindow, ptr %96, i32 0, i32 21
  %98 = load i32, ptr %97, align 4, !tbaa !59
  %99 = load i32, ptr %6, align 4, !tbaa !8
  %100 = icmp eq i32 %98, %99
  br i1 %100, label %101, label %102

101:                                              ; preds = %92
  store i32 1, ptr %8, align 4
  br label %163

102:                                              ; preds = %92
  %103 = load i32, ptr %6, align 4, !tbaa !8
  %104 = icmp ne i32 %103, 0
  br i1 %104, label %129, label %105

105:                                              ; preds = %102
  call void @llvm.lifetime.start.p0(i64 4, ptr %10) #8
  store i32 0, ptr %10, align 4, !tbaa !8
  br label %106

106:                                              ; preds = %125, %105
  %107 = load i32, ptr %10, align 4, !tbaa !8
  %108 = icmp sle i32 %107, 7
  br i1 %108, label %109, label %128

109:                                              ; preds = %106
  %110 = load ptr, ptr %7, align 8, !tbaa !3
  %111 = getelementptr inbounds nuw %struct._GLFWwindow, ptr %110, i32 0, i32 24
  %112 = load i32, ptr %10, align 4, !tbaa !8
  %113 = sext i32 %112 to i64
  %114 = getelementptr inbounds [8 x i8], ptr %111, i64 0, i64 %113
  %115 = load i8, ptr %114, align 1, !tbaa !10
  %116 = sext i8 %115 to i32
  %117 = icmp eq i32 %116, 3
  br i1 %117, label %118, label %124

118:                                              ; preds = %109
  %119 = load ptr, ptr %7, align 8, !tbaa !3
  %120 = getelementptr inbounds nuw %struct._GLFWwindow, ptr %119, i32 0, i32 24
  %121 = load i32, ptr %10, align 4, !tbaa !8
  %122 = sext i32 %121 to i64
  %123 = getelementptr inbounds [8 x i8], ptr %120, i64 0, i64 %122
  store i8 0, ptr %123, align 1, !tbaa !10
  br label %124

124:                                              ; preds = %118, %109
  br label %125

125:                                              ; preds = %124
  %126 = load i32, ptr %10, align 4, !tbaa !8
  %127 = add nsw i32 %126, 1
  store i32 %127, ptr %10, align 4, !tbaa !8
  br label %106

128:                                              ; preds = %106
  call void @llvm.lifetime.end.p0(i64 4, ptr %10) #8
  br label %129

129:                                              ; preds = %128, %102
  %130 = load i32, ptr %6, align 4, !tbaa !8
  %131 = load ptr, ptr %7, align 8, !tbaa !3
  %132 = getelementptr inbounds nuw %struct._GLFWwindow, ptr %131, i32 0, i32 21
  store i32 %130, ptr %132, align 4, !tbaa !59
  store i32 1, ptr %8, align 4
  br label %163

133:                                              ; preds = %15
  %134 = load i32, ptr %6, align 4, !tbaa !8
  %135 = icmp ne i32 %134, 0
  %136 = select i1 %135, i32 1, i32 0
  %137 = load ptr, ptr %7, align 8, !tbaa !3
  %138 = getelementptr inbounds nuw %struct._GLFWwindow, ptr %137, i32 0, i32 22
  store i32 %136, ptr %138, align 8, !tbaa !53
  store i32 1, ptr %8, align 4
  br label %163

139:                                              ; preds = %15
  %140 = load ptr, ptr getelementptr inbounds nuw (%struct._GLFWplatform, ptr getelementptr inbounds nuw (%struct._GLFWlibrary, ptr @_glfw, i32 0, i32 2), i32 0, i32 7), align 8, !tbaa !186
  %141 = call i32 %140()
  %142 = icmp ne i32 %141, 0
  br i1 %142, label %144, label %143

143:                                              ; preds = %139
  call void (i32, ptr, ...) @_glfwInputError(i32 noundef 65544, ptr noundef @.str.397)
  store i32 1, ptr %8, align 4
  br label %163

144:                                              ; preds = %139
  %145 = load i32, ptr %6, align 4, !tbaa !8
  %146 = icmp ne i32 %145, 0
  %147 = select i1 %146, i32 1, i32 0
  store i32 %147, ptr %6, align 4, !tbaa !8
  %148 = load ptr, ptr %7, align 8, !tbaa !3
  %149 = getelementptr inbounds nuw %struct._GLFWwindow, ptr %148, i32 0, i32 28
  %150 = load i32, ptr %149, align 8, !tbaa !183
  %151 = load i32, ptr %6, align 4, !tbaa !8
  %152 = icmp eq i32 %150, %151
  br i1 %152, label %153, label %154

153:                                              ; preds = %144
  store i32 1, ptr %8, align 4
  br label %163

154:                                              ; preds = %144
  %155 = load i32, ptr %6, align 4, !tbaa !8
  %156 = load ptr, ptr %7, align 8, !tbaa !3
  %157 = getelementptr inbounds nuw %struct._GLFWwindow, ptr %156, i32 0, i32 28
  store i32 %155, ptr %157, align 8, !tbaa !183
  %158 = load ptr, ptr getelementptr inbounds nuw (%struct._GLFWplatform, ptr getelementptr inbounds nuw (%struct._GLFWlibrary, ptr @_glfw, i32 0, i32 2), i32 0, i32 6), align 8, !tbaa !187
  %159 = load ptr, ptr %7, align 8, !tbaa !3
  %160 = load i32, ptr %6, align 4, !tbaa !8
  call void %158(ptr noundef %159, i32 noundef %160)
  store i32 1, ptr %8, align 4
  br label %163

161:                                              ; preds = %15
  %162 = load i32, ptr %5, align 4, !tbaa !8
  call void (i32, ptr, ...) @_glfwInputError(i32 noundef 65539, ptr noundef @.str.395, i32 noundef %162)
  store i32 0, ptr %8, align 4
  br label %163

163:                                              ; preds = %161, %154, %153, %143, %133, %129, %101, %88, %60, %38, %37, %29, %14
  call void @llvm.lifetime.end.p0(i64 8, ptr %7) #8
  %164 = load i32, ptr %8, align 4
  switch i32 %164, label %166 [
    i32 0, label %165
    i32 1, label %165
  ]

165:                                              ; preds = %163, %163
  ret void

166:                                              ; preds = %163
  unreachable
}