; Function Attrs: nounwind uwtable
define void @glfwSetInputMode(ptr noundef %0, i32 noundef %1, i32 noundef %2) local_unnamed_addr #0 {
  %4 = load i32, ptr @_glfw, align 8, !tbaa !170
  %.not = icmp eq i32 %4, 0
  br i1 %.not, label %5, label %6

5:                                                ; preds = %3
  tail call void (i32, ptr, ...) @_glfwInputError(i32 noundef 65537, ptr noundef null) #12
  br label %60

6:                                                ; preds = %3
  switch i32 %1, label %59 [
    i32 208897, label %7
    i32 208898, label %19
    i32 208899, label %32
    i32 208900, label %45
    i32 208901, label %48
  ]

7:                                                ; preds = %6
  %8 = add i32 %2, -212997
  %or.cond5 = icmp ult i32 %8, -4
  br i1 %or.cond5, label %9, label %10

9:                                                ; preds = %7
  tail call void (i32, ptr, ...) @_glfwInputError(i32 noundef 65539, ptr noundef nonnull @.str.396, i32 noundef %2) #12
  br label %60

10:                                               ; preds = %7
  %11 = getelementptr inbounds nuw i8, ptr %0, i64 140
  %12 = load i32, ptr %11, align 4, !tbaa !171
  %13 = icmp eq i32 %12, %2
  br i1 %13, label %60, label %14

14:                                               ; preds = %10
  store i32 %2, ptr %11, align 4, !tbaa !171
  %15 = load ptr, ptr getelementptr inbounds nuw (i8, ptr @_glfw, i64 64), align 8, !tbaa !173
  %16 = getelementptr inbounds nuw i8, ptr %0, i64 504
  %17 = getelementptr inbounds nuw i8, ptr %0, i64 512
  tail call void %15(ptr noundef nonnull %0, ptr noundef nonnull %16, ptr noundef nonnull %17) #12
  %18 = load ptr, ptr getelementptr inbounds nuw (i8, ptr @_glfw, i64 80), align 8, !tbaa !174
  tail call void %18(ptr noundef nonnull %0, i32 noundef %2) #12
  br label %60

19:                                               ; preds = %6
  %.not63 = icmp ne i32 %2, 0
  %20 = zext i1 %.not63 to i32
  %21 = getelementptr inbounds nuw i8, ptr %0, i64 128
  %22 = load i32, ptr %21, align 8, !tbaa !6
  %23 = icmp eq i32 %22, %20
  br i1 %23, label %60, label %24

24:                                               ; preds = %19
  br i1 %.not63, label %.loopexit, label %.preheader

.preheader:                                       ; preds = %24
  %25 = getelementptr inbounds nuw i8, ptr %0, i64 152
  br label %26

26:                                               ; preds = %.preheader, %31
  %indvars.iv69 = phi i64 [ 0, %.preheader ], [ %indvars.iv.next70, %31 ]
  %27 = getelementptr inbounds nuw [349 x i8], ptr %25, i64 0, i64 %indvars.iv69
  %28 = load i8, ptr %27, align 1, !tbaa !3
  %29 = icmp eq i8 %28, 3
  br i1 %29, label %30, label %31

30:                                               ; preds = %26
  store i8 0, ptr %27, align 1, !tbaa !3
  br label %31

31:                                               ; preds = %26, %30
  %indvars.iv.next70 = add nuw nsw i64 %indvars.iv69, 1
  %exitcond72.not = icmp eq i64 %indvars.iv.next70, 349
  br i1 %exitcond72.not, label %.loopexit, label %26

.loopexit:                                        ; preds = %31, %24
  store i32 %20, ptr %21, align 8, !tbaa !6
  br label %60

32:                                               ; preds = %6
  %.not62 = icmp ne i32 %2, 0
  %33 = zext i1 %.not62 to i32
  %34 = getelementptr inbounds nuw i8, ptr %0, i64 132
  %35 = load i32, ptr %34, align 4, !tbaa !56
  %36 = icmp eq i32 %35, %33
  br i1 %36, label %60, label %37

37:                                               ; preds = %32
  br i1 %.not62, label %.loopexit65, label %.preheader64

.preheader64:                                     ; preds = %37
  %38 = getelementptr inbounds nuw i8, ptr %0, i64 144
  br label %39

39:                                               ; preds = %.preheader64, %44
  %indvars.iv = phi i64 [ 0, %.preheader64 ], [ %indvars.iv.next, %44 ]
  %40 = getelementptr inbounds nuw [8 x i8], ptr %38, i64 0, i64 %indvars.iv
  %41 = load i8, ptr %40, align 1, !tbaa !3
  %42 = icmp eq i8 %41, 3
  br i1 %42, label %43, label %44

43:                                               ; preds = %39
  store i8 0, ptr %40, align 1, !tbaa !3
  br label %44

44:                                               ; preds = %39, %43
  %indvars.iv.next = add nuw nsw i64 %indvars.iv, 1
  %exitcond.not = icmp eq i64 %indvars.iv.next, 8
  br i1 %exitcond.not, label %.loopexit65, label %39

.loopexit65:                                      ; preds = %44, %37
  store i32 %33, ptr %34, align 4, !tbaa !56
  br label %60

45:                                               ; preds = %6
  %.not61 = icmp ne i32 %2, 0
  %46 = zext i1 %.not61 to i32
  %47 = getelementptr inbounds nuw i8, ptr %0, i64 136
  store i32 %46, ptr %47, align 8, !tbaa !52
  br label %60

48:                                               ; preds = %6
  %49 = load ptr, ptr getelementptr inbounds nuw (i8, ptr @_glfw, i64 96), align 8, !tbaa !175
  %50 = tail call i32 %49() #12
  %.not59 = icmp eq i32 %50, 0
  br i1 %.not59, label %51, label %52

51:                                               ; preds = %48
  tail call void (i32, ptr, ...) @_glfwInputError(i32 noundef 65544, ptr noundef nonnull @.str.397) #12
  br label %60

52:                                               ; preds = %48
  %.not60 = icmp ne i32 %2, 0
  %53 = zext i1 %.not60 to i32
  %54 = getelementptr inbounds nuw i8, ptr %0, i64 520
  %55 = load i32, ptr %54, align 8, !tbaa !172
  %56 = icmp eq i32 %55, %53
  br i1 %56, label %60, label %57

57:                                               ; preds = %52
  store i32 %53, ptr %54, align 8, !tbaa !172
  %58 = load ptr, ptr getelementptr inbounds nuw (i8, ptr @_glfw, i64 88), align 8, !tbaa !176
  tail call void %58(ptr noundef nonnull %0, i32 noundef %53) #12
  br label %60

59:                                               ; preds = %6
  tail call void (i32, ptr, ...) @_glfwInputError(i32 noundef 65539, ptr noundef nonnull @.str.395, i32 noundef %1) #12
  br label %60

60:                                               ; preds = %52, %32, %19, %10, %59, %57, %51, %45, %.loopexit65, %.loopexit, %14, %9, %5
  ret void
}